target datalayout = "e-m:e-p270:32:32-p271:32:32-p272:64:64-i64:64-i128:128-f80:128-n8:16:32:64-S128"
target triple = "x86_64-pc-linux-gnu"

@netrix_handle = internal global ptr null, align 8
@.str.65 = private unnamed_addr constant [30 x i8] c"Netrix Communication Protocol\00", align 1
@.str.66 = private unnamed_addr constant [7 x i8] c"Netrix\00", align 1
@.str.67 = private unnamed_addr constant [7 x i8] c"netrix\00", align 1
@proto_netrix = internal global i32 0, align 4

; Function Attrs: null_pointer_is_valid sspstrong uwtable
define hidden void @proto_register_netrix() #0 {
  %1 = alloca ptr, align 8
  call void @llvm.lifetime.start.p0(i64 8, ptr %1) #3
  %2 = call i32 @proto_register_protocol(ptr noundef @.str.65, ptr noundef @.str.66, ptr noundef @.str.67)
  store i32 %2, ptr @proto_netrix, align 4
  %3 = load i32, ptr @proto_netrix, align 4
  call void @proto_register_field_array(i32 noundef %3, ptr noundef @proto_register_netrix.hf, i32 noundef 34)
  call void @proto_register_subtree_array(ptr noundef @proto_register_netrix.ett, i32 noundef 10)
  %4 = load i32, ptr @proto_netrix, align 4
  %5 = call ptr @expert_register_protocol(i32 noundef %4)
  store ptr %5, ptr %1, align 8
  %6 = load ptr, ptr %1, align 8
  call void @expert_register_field_array(ptr noundef %6, ptr noundef @proto_register_netrix.ei, i32 noundef 2)
  %7 = load i32, ptr @proto_netrix, align 4
  %8 = call ptr @register_dissector(ptr noundef @.str.67, ptr noundef @dissect_netrix, i32 noundef %7)
  store ptr %8, ptr @netrix_handle, align 8
  call void @llvm.lifetime.end.p0(i64 8, ptr %1) #3
  ret void
}